; Function Attrs: null_pointer_is_valid sspstrong uwtable
define hidden range(i32 0, 2) i32 @rtpstream_info_cmp(ptr noundef %0, ptr noundef %1) local_unnamed_addr #1 {
  %3 = icmp eq ptr %0, %1
  br i1 %3, label %9, label %4

4:                                                ; preds = %2
  %5 = icmp eq ptr %0, null
  %6 = icmp eq ptr %1, null
  %or.cond = or i1 %5, %6
  br i1 %or.cond, label %9, label %7

7:                                                ; preds = %4
  %8 = tail call zeroext i1 @rtpstream_id_equal(ptr noundef nonnull %0, ptr noundef nonnull %1, i32 noundef 1)
  %not. = xor i1 %8, true
  %. = zext i1 %not. to i32
  br label %9

9:                                                ; preds = %7, %4, %2
  %.0 = phi i32 [ 0, %2 ], [ 1, %4 ], [ %., %7 ]
  ret i32 %.0
}